; Function Attrs: mustprogress uwtable
define dso_local noundef signext i8 @_ZNK4absl4CordixEm(ptr noundef nonnull readonly align 8 captures(none) dereferenceable(16) %0, i64 noundef %1) local_unnamed_addr #3 align 2 {
  %3 = load i8, ptr %0, align 8, !tbaa !13
  %4 = and i8 %3, 1
  %.not.i = icmp eq i8 %4, 0
  %5 = getelementptr inbounds nuw i8, ptr %0, i64 8
  %6 = load ptr, ptr %5, align 8
  %7 = icmp eq ptr %6, null
  %8 = select i1 %.not.i, i1 true, i1 %7
  br i1 %8, label %9, label %13

9:                                                ; preds = %2
  %10 = getelementptr inbounds nuw i8, ptr %0, i64 1
  %spec.select.i = select i1 %.not.i, ptr %10, ptr null
  %11 = getelementptr inbounds nuw i8, ptr %spec.select.i, i64 %1
  %12 = load i8, ptr %11, align 1, !tbaa !13
  br label %42

13:                                               ; preds = %2
  %14 = getelementptr inbounds nuw i8, ptr %6, i64 12
  %15 = load i8, ptr %14, align 4, !tbaa !23
  %16 = icmp eq i8 %15, 2
  br i1 %16, label %17, label %_ZN4absl13cord_internal11SkipCrcNodeEPKNS0_7CordRepE.exit, !prof !59

17:                                               ; preds = %13
  %18 = getelementptr inbounds nuw i8, ptr %6, i64 16
  %19 = load ptr, ptr %18, align 8, !tbaa !55
  %.phi.trans.insert = getelementptr inbounds nuw i8, ptr %19, i64 12
  %.pre = load i8, ptr %.phi.trans.insert, align 4, !tbaa !23
  br label %_ZN4absl13cord_internal11SkipCrcNodeEPKNS0_7CordRepE.exit

_ZN4absl13cord_internal11SkipCrcNodeEPKNS0_7CordRepE.exit: ; preds = %13, %17
  %20 = phi i8 [ %.pre, %17 ], [ %15, %13 ]
  %.0.i21 = phi ptr [ %19, %17 ], [ %6, %13 ]
  %21 = icmp ugt i8 %20, 5
  br i1 %21, label %._crit_edge, label %.lr.ph

._crit_edge:                                      ; preds = %33, %_ZN4absl13cord_internal11SkipCrcNodeEPKNS0_7CordRepE.exit
  %.017.lcssa = phi i64 [ %1, %_ZN4absl13cord_internal11SkipCrcNodeEPKNS0_7CordRepE.exit ], [ %36, %33 ]
  %.0.lcssa = phi ptr [ %.0.i21, %_ZN4absl13cord_internal11SkipCrcNodeEPKNS0_7CordRepE.exit ], [ %38, %33 ]
  %22 = getelementptr inbounds nuw i8, ptr %.0.lcssa, i64 13
  %23 = getelementptr inbounds nuw i8, ptr %22, i64 %.017.lcssa
  %24 = load i8, ptr %23, align 1, !tbaa !13
  br label %42

.lr.ph:                                           ; preds = %_ZN4absl13cord_internal11SkipCrcNodeEPKNS0_7CordRepE.exit, %33
  %25 = phi i8 [ %40, %33 ], [ %20, %_ZN4absl13cord_internal11SkipCrcNodeEPKNS0_7CordRepE.exit ]
  %.027 = phi ptr [ %38, %33 ], [ %.0.i21, %_ZN4absl13cord_internal11SkipCrcNodeEPKNS0_7CordRepE.exit ]
  %.01726 = phi i64 [ %36, %33 ], [ %1, %_ZN4absl13cord_internal11SkipCrcNodeEPKNS0_7CordRepE.exit ]
  switch i8 %25, label %33 [
    i8 3, label %26
    i8 5, label %28
  ]

26:                                               ; preds = %.lr.ph
  %27 = tail call noundef signext i8 @_ZNK4absl13cord_internal12CordRepBtree12GetCharacterEm(ptr noundef nonnull align 8 dereferenceable(64) %.027, i64 noundef %.01726)
  br label %42

28:                                               ; preds = %.lr.ph
  %29 = getelementptr inbounds nuw i8, ptr %.027, i64 16
  %30 = load ptr, ptr %29, align 8, !tbaa !24
  %31 = getelementptr inbounds nuw i8, ptr %30, i64 %.01726
  %32 = load i8, ptr %31, align 1, !tbaa !13
  br label %42

33:                                               ; preds = %.lr.ph
  %34 = getelementptr inbounds nuw i8, ptr %.027, i64 16
  %35 = load i64, ptr %34, align 8, !tbaa !110
  %36 = add i64 %35, %.01726
  %37 = getelementptr inbounds nuw i8, ptr %.027, i64 24
  %38 = load ptr, ptr %37, align 8, !tbaa !32
  %39 = getelementptr inbounds nuw i8, ptr %38, i64 12
  %40 = load i8, ptr %39, align 4, !tbaa !23
  %41 = icmp ugt i8 %40, 5
  br i1 %41, label %._crit_edge, label %.lr.ph, !llvm.loop !156

42:                                               ; preds = %28, %26, %._crit_edge, %9
  %.018 = phi i8 [ %12, %9 ], [ %24, %._crit_edge ], [ %27, %26 ], [ %32, %28 ]
  ret i8 %.018
}